target datalayout = "e-m:e-p270:32:32-p271:32:32-p272:64:64-i64:64-i128:128-f80:128-n8:16:32:64-S128"
target triple = "x86_64-pc-linux-gnu"

%struct._iscsi_session_t = type { i32, i32, ptr, ptr }

@hf_iscsi_HeaderDigest32 = internal global i32 0, align 4
@.str.534 = private unnamed_addr constant [20 x i8] c"0x%08x (Good CRC32)\00", align 1
@.str.535 = private unnamed_addr constant [37 x i8] c"0x%08x (Bad CRC32, should be 0x%08x)\00", align 1

; Function Attrs: null_pointer_is_valid sspstrong uwtable
define internal i32 @handleHeaderDigest(ptr noundef %0, ptr noundef %1, ptr noundef %2, i32 noundef %3, i32 noundef %4) #0 {
  %6 = alloca i32, align 4
  %7 = alloca ptr, align 8
  %8 = alloca ptr, align 8
  %9 = alloca ptr, align 8
  %10 = alloca i32, align 4
  %11 = alloca i32, align 4
  %12 = alloca i32, align 4
  %13 = alloca i32, align 4
  %14 = alloca i32, align 4
  %15 = alloca i32, align 4
  store ptr %0, ptr %7, align 8
  store ptr %1, ptr %8, align 8
  store ptr %2, ptr %9, align 8
  store i32 %3, ptr %10, align 4
  store i32 %4, ptr %11, align 4
  call void @llvm.lifetime.start.p0(i64 4, ptr %12) #11
  %16 = load ptr, ptr %9, align 8
  %17 = load i32, ptr %10, align 4
  %18 = call i32 @tvb_captured_length_remaining(ptr noundef %16, i32 noundef %17)
  store i32 %18, ptr %12, align 4
  %19 = load ptr, ptr %7, align 8
  %20 = getelementptr inbounds nuw %struct._iscsi_session_t, ptr %19, i32 0, i32 0
  %21 = load i32, ptr %20, align 8
  switch i32 %21, label %68 [
    i32 2, label %22
  ]

22:                                               ; preds = %5
  %23 = load i32, ptr %12, align 4
  %24 = load i32, ptr %11, align 4
  %25 = add i32 %24, 4
  %26 = icmp sge i32 %23, %25
  br i1 %26, label %27, label %63

27:                                               ; preds = %22
  call void @llvm.lifetime.start.p0(i64 4, ptr %13) #11
  %28 = load ptr, ptr %9, align 8
  %29 = load i32, ptr %10, align 4
  %30 = load i32, ptr %11, align 4
  %31 = call i32 @crc32c_tvb_offset_calculate(ptr noundef %28, i32 noundef %29, i32 noundef %30, i32 noundef -1)
  %32 = xor i32 %31, -1
  store i32 %32, ptr %13, align 4
  call void @llvm.lifetime.start.p0(i64 4, ptr %14) #11
  %33 = load ptr, ptr %9, align 8
  %34 = load i32, ptr %10, align 4
  %35 = load i32, ptr %11, align 4
  %36 = add i32 %34, %35
  %37 = call i32 @tvb_get_ntohl(ptr noundef %33, i32 noundef %36)
  store i32 %37, ptr %14, align 4
  %38 = load i32, ptr %13, align 4
  %39 = load i32, ptr %14, align 4
  %40 = icmp eq i32 %38, %39
  br i1 %40, label %41, label %51

41:                                               ; preds = %27
  %42 = load ptr, ptr %8, align 8
  %43 = load i32, ptr @hf_iscsi_HeaderDigest32, align 4
  %44 = load ptr, ptr %9, align 8
  %45 = load i32, ptr %10, align 4
  %46 = load i32, ptr %11, align 4
  %47 = add i32 %45, %46
  %48 = load i32, ptr %14, align 4
  %49 = load i32, ptr %14, align 4
  %50 = call ptr (ptr, i32, ptr, i32, i32, i32, ptr, ...) @proto_tree_add_uint_format_value(ptr noundef %42, i32 noundef %43, ptr noundef %44, i32 noundef %47, i32 noundef 4, i32 noundef %48, ptr noundef @.str.534, i32 noundef %49)
  br label %62

51:                                               ; preds = %27
  %52 = load ptr, ptr %8, align 8
  %53 = load i32, ptr @hf_iscsi_HeaderDigest32, align 4
  %54 = load ptr, ptr %9, align 8
  %55 = load i32, ptr %10, align 4
  %56 = load i32, ptr %11, align 4
  %57 = add i32 %55, %56
  %58 = load i32, ptr %14, align 4
  %59 = load i32, ptr %14, align 4
  %60 = load i32, ptr %13, align 4
  %61 = call ptr (ptr, i32, ptr, i32, i32, i32, ptr, ...) @proto_tree_add_uint_format_value(ptr noundef %52, i32 noundef %53, ptr noundef %54, i32 noundef %57, i32 noundef 4, i32 noundef %58, ptr noundef @.str.535, i32 noundef %59, i32 noundef %60)
  br label %62

62:                                               ; preds = %51, %41
  call void @llvm.lifetime.end.p0(i64 4, ptr %14) #11
  call void @llvm.lifetime.end.p0(i64 4, ptr %13) #11
  br label %63

63:                                               ; preds = %62, %22
  %64 = load i32, ptr %10, align 4
  %65 = load i32, ptr %11, align 4
  %66 = add i32 %64, %65
  %67 = add i32 %66, 4
  store i32 %67, ptr %6, align 4
  store i32 1, ptr %15, align 4
  br label %73

68:                                               ; preds = %5
  br label %69

69:                                               ; preds = %68
  %70 = load i32, ptr %10, align 4
  %71 = load i32, ptr %11, align 4
  %72 = add i32 %70, %71
  store i32 %72, ptr %6, align 4
  store i32 1, ptr %15, align 4
  br label %73

73:                                               ; preds = %69, %63
  call void @llvm.lifetime.end.p0(i64 4, ptr %12) #11
  %74 = load i32, ptr %6, align 4
  ret i32 %74
}