; Function Attrs: null_pointer_is_valid sspstrong uwtable
define internal fastcc noundef i32 @handleHeaderDigest(ptr noundef readonly captures(none) %0, ptr noundef %1, ptr noundef %2, i32 noundef %3, i32 noundef range(i32 48, 1069) %4) unnamed_addr #0 {
  %6 = tail call i32 @tvb_captured_length_remaining(ptr noundef %2, i32 noundef %3)
  %7 = load i32, ptr %0, align 8
  %cond = icmp eq i32 %7, 2
  br i1 %cond, label %8, label %23

8:                                                ; preds = %5
  %9 = add nuw nsw i32 %4, 4
  %.not = icmp slt i32 %6, %9
  br i1 %.not, label %._crit_edge, label %10

._crit_edge:                                      ; preds = %8
  %.pre = add i32 %4, %3
  br label %21

10:                                               ; preds = %8
  %11 = tail call i32 @crc32c_tvb_offset_calculate(ptr noundef %2, i32 noundef %3, i32 noundef %4, i32 noundef -1)
  %12 = xor i32 %11, -1
  %13 = add i32 %4, %3
  %14 = tail call i32 @tvb_get_ntohl(ptr noundef %2, i32 noundef %13)
  %15 = icmp eq i32 %14, %12
  %16 = load i32, ptr @hf_iscsi_HeaderDigest32, align 4
  br i1 %15, label %17, label %19

17:                                               ; preds = %10
  %18 = tail call ptr (ptr, i32, ptr, i32, i32, i32, ptr, ...) @proto_tree_add_uint_format_value(ptr noundef %1, i32 noundef %16, ptr noundef %2, i32 noundef %13, i32 noundef 4, i32 noundef %12, ptr noundef nonnull @.str.534, i32 noundef %12)
  br label %21

19:                                               ; preds = %10
  %20 = tail call ptr (ptr, i32, ptr, i32, i32, i32, ptr, ...) @proto_tree_add_uint_format_value(ptr noundef %1, i32 noundef %16, ptr noundef %2, i32 noundef %13, i32 noundef 4, i32 noundef %14, ptr noundef nonnull @.str.535, i32 noundef %14, i32 noundef %12)
  br label %21

21:                                               ; preds = %._crit_edge, %17, %19
  %.pre-phi = phi i32 [ %.pre, %._crit_edge ], [ %13, %17 ], [ %13, %19 ]
  %22 = add i32 %.pre-phi, 4
  br label %25

23:                                               ; preds = %5
  %24 = add i32 %4, %3
  br label %25

25:                                               ; preds = %23, %21
  %.0 = phi i32 [ %22, %21 ], [ %24, %23 ]
  ret i32 %.0
}